; Function Attrs: mustprogress nounwind uwtable
define hidden noundef zeroext i1 @_ZN8ciObject18should_be_constantEv(ptr noundef nonnull align 8 dereferenceable(40) %0) local_unnamed_addr #0 align 2 {
  %2 = load i64, ptr @ScavengeRootsInCode, align 8
  %3 = icmp sgt i64 %2, 1
  br i1 %3, label %29, label %4

4:                                                ; preds = %1
  %5 = load ptr, ptr %0, align 8
  %6 = getelementptr inbounds i8, ptr %5, i64 40
  %7 = load ptr, ptr %6, align 8
  %8 = tail call noundef zeroext i1 %7(ptr noundef nonnull align 8 dereferenceable(40) %0) #11
  br i1 %8, label %29, label %9

9:                                                ; preds = %4
  %10 = tail call noundef ptr @_ZN8ciObject5klassEv(ptr noundef nonnull align 8 dereferenceable(40) %0)
  %11 = load ptr, ptr @_ZN5ciEnv13_String_klassE, align 8
  %12 = icmp eq ptr %10, %11
  br i1 %12, label %29, label %13

13:                                               ; preds = %9
  %14 = tail call noundef ptr @_ZN8ciObject5klassEv(ptr noundef nonnull align 8 dereferenceable(40) %0)
  %15 = load ptr, ptr @_ZN5ciEnv12_Class_klassE, align 8
  %16 = icmp eq ptr %14, %15
  br i1 %16, label %29, label %17

17:                                               ; preds = %13
  %18 = tail call noundef ptr @_ZN8ciObject5klassEv(ptr noundef nonnull align 8 dereferenceable(40) %0)
  %19 = load ptr, ptr @_ZN5ciEnv19_MethodHandle_klassE, align 8
  %20 = tail call noundef zeroext i1 @_ZN7ciKlass14is_subclass_ofEPS_(ptr noundef nonnull align 8 dereferenceable(44) %18, ptr noundef %19) #11
  br i1 %20, label %29, label %21

21:                                               ; preds = %17
  %22 = tail call noundef ptr @_ZN8ciObject5klassEv(ptr noundef nonnull align 8 dereferenceable(40) %0)
  %23 = load ptr, ptr @_ZN5ciEnv15_CallSite_klassE, align 8
  %24 = tail call noundef zeroext i1 @_ZN7ciKlass14is_subclass_ofEPS_(ptr noundef nonnull align 8 dereferenceable(44) %22, ptr noundef %23) #11
  br i1 %24, label %29, label %25

25:                                               ; preds = %21
  %26 = getelementptr inbounds i8, ptr %0, i64 16
  %27 = load ptr, ptr %26, align 8
  %28 = icmp eq ptr %27, null
  br label %29

29:                                               ; preds = %17, %21, %9, %13, %4, %1, %25
  %.0 = phi i1 [ %28, %25 ], [ true, %1 ], [ true, %4 ], [ true, %13 ], [ true, %9 ], [ true, %21 ], [ true, %17 ]
  ret i1 %.0
}